target datalayout = "e-m:e-p270:32:32-p271:32:32-p272:64:64-i64:64-i128:128-f80:128-n8:16:32:64-S128"
target triple = "x86_64-pc-linux-gnu"

%struct.ref_iterator = type { ptr, ptr, ptr, ptr, i32 }

; Function Attrs: nounwind uwtable
define dso_local i32 @ref_iterator_select(ptr noundef %0, ptr noundef %1, ptr noundef %2) #0 {
  %4 = alloca i32, align 4
  %5 = alloca ptr, align 8
  %6 = alloca ptr, align 8
  %7 = alloca ptr, align 8
  %8 = alloca i32, align 4
  %9 = alloca i32, align 4
  store ptr %0, ptr %5, align 8, !tbaa !4
  store ptr %1, ptr %6, align 8, !tbaa !4
  store ptr %2, ptr %7, align 8, !tbaa !27
  %10 = load ptr, ptr %5, align 8, !tbaa !4
  %11 = icmp ne ptr %10, null
  br i1 %11, label %12, label %16

12:                                               ; preds = %3
  %13 = load ptr, ptr %6, align 8, !tbaa !4
  %14 = icmp ne ptr %13, null
  br i1 %14, label %16, label %15

15:                                               ; preds = %12
  store i32 2, ptr %4, align 4
  br label %51

16:                                               ; preds = %12, %3
  %17 = load ptr, ptr %6, align 8, !tbaa !4
  %18 = icmp ne ptr %17, null
  br i1 %18, label %19, label %50

19:                                               ; preds = %16
  %20 = load ptr, ptr %5, align 8, !tbaa !4
  %21 = icmp ne ptr %20, null
  br i1 %21, label %22, label %42

22:                                               ; preds = %19
  call void @llvm.lifetime.start.p0(i64 4, ptr %8) #6
  %23 = load ptr, ptr %5, align 8, !tbaa !4
  %24 = getelementptr inbounds nuw %struct.ref_iterator, ptr %23, i32 0, i32 1
  %25 = load ptr, ptr %24, align 8, !tbaa !21
  %26 = load ptr, ptr %6, align 8, !tbaa !4
  %27 = getelementptr inbounds nuw %struct.ref_iterator, ptr %26, i32 0, i32 1
  %28 = load ptr, ptr %27, align 8, !tbaa !21
  %29 = call i32 @strcmp(ptr noundef %25, ptr noundef %28) #7
  store i32 %29, ptr %8, align 4, !tbaa !28
  %30 = load i32, ptr %8, align 4, !tbaa !28
  %31 = icmp slt i32 %30, 0
  br i1 %31, label %32, label %33

32:                                               ; preds = %22
  store i32 2, ptr %4, align 4
  store i32 1, ptr %9, align 4
  br label %39

33:                                               ; preds = %22
  %34 = load i32, ptr %8, align 4, !tbaa !28
  %35 = icmp ne i32 %34, 0
  br i1 %35, label %37, label %36

36:                                               ; preds = %33
  store i32 6, ptr %4, align 4
  store i32 1, ptr %9, align 4
  br label %39

37:                                               ; preds = %33
  br label %38

38:                                               ; preds = %37
  store i32 0, ptr %9, align 4
  br label %39

39:                                               ; preds = %38, %36, %32
  call void @llvm.lifetime.end.p0(i64 4, ptr %8) #6
  %40 = load i32, ptr %9, align 4
  switch i32 %40, label %53 [
    i32 0, label %41
    i32 1, label %51
  ]

41:                                               ; preds = %39
  br label %42

42:                                               ; preds = %41, %19
  %43 = load ptr, ptr %6, align 8, !tbaa !4
  %44 = getelementptr inbounds nuw %struct.ref_iterator, ptr %43, i32 0, i32 1
  %45 = load ptr, ptr %44, align 8, !tbaa !21
  %46 = call i32 @parse_worktree_ref(ptr noundef %45, ptr noundef null, ptr noundef null, ptr noundef null)
  %47 = icmp eq i32 %46, 3
  br i1 %47, label %48, label %49

48:                                               ; preds = %42
  store i32 3, ptr %4, align 4
  br label %51

49:                                               ; preds = %42
  store i32 4, ptr %4, align 4
  br label %51

50:                                               ; preds = %16
  store i32 -1, ptr %4, align 4
  br label %51

51:                                               ; preds = %50, %49, %48, %39, %15
  %52 = load i32, ptr %4, align 4
  ret i32 %52

53:                                               ; preds = %39
  unreachable
}