; Function Attrs: nounwind uwtable
define dso_local range(i32 -1, 7) i32 @ref_iterator_select(ptr noundef readonly %0, ptr noundef readonly %1, ptr noundef readnone captures(none) %2) local_unnamed_addr #0 {
  %4 = icmp ne ptr %0, null
  %5 = icmp eq ptr %1, null
  %or.cond.not20 = and i1 %4, %5
  %.mux = select i1 %or.cond.not20, i32 2, i32 -1
  br i1 %5, label %18, label %6

6:                                                ; preds = %3
  br i1 %4, label %7, label %._crit_edge

._crit_edge:                                      ; preds = %6
  %.phi.trans.insert = getelementptr inbounds nuw i8, ptr %1, i64 8
  %.pre = load ptr, ptr %.phi.trans.insert, align 8, !tbaa !17
  br label %14

7:                                                ; preds = %6
  %8 = getelementptr inbounds nuw i8, ptr %0, i64 8
  %9 = load ptr, ptr %8, align 8, !tbaa !17
  %10 = getelementptr inbounds nuw i8, ptr %1, i64 8
  %11 = load ptr, ptr %10, align 8, !tbaa !17
  %12 = tail call i32 @strcmp(ptr noundef nonnull dereferenceable(1) %9, ptr noundef nonnull dereferenceable(1) %11) #12
  %13 = icmp slt i32 %12, 0
  %.1 = select i1 %13, i32 2, i32 6
  %.0 = icmp sgt i32 %12, 0
  br i1 %.0, label %14, label %18

14:                                               ; preds = %._crit_edge, %7
  %15 = phi ptr [ %.pre, %._crit_edge ], [ %11, %7 ]
  %16 = tail call i32 @parse_worktree_ref(ptr noundef %15, ptr noundef null, ptr noundef null, ptr noundef null) #11
  %17 = icmp eq i32 %16, 3
  %.17 = select i1 %17, i32 3, i32 4
  br label %18

18:                                               ; preds = %7, %3, %14
  %.011 = phi i32 [ %.1, %7 ], [ %.mux, %3 ], [ %.17, %14 ]
  ret i32 %.011
}